target datalayout = "e-m:e-p270:32:32-p271:32:32-p272:64:64-i64:64-i128:128-f80:128-n8:16:32:64-S128"
target triple = "x86_64-pc-linux-gnu"

%struct.FLAC__StreamMetadata_VorbisComment_Entry = type { i32, ptr }

@.str.8 = private unnamed_addr constant [2 x i8] c"C\00", align 1

; Function Attrs: nounwind sspstrong uwtable
define internal i32 @append_tag_(ptr noundef %0, ptr noundef %1, ptr noundef %2, float noundef %3) #0 {
  %5 = alloca i32, align 4
  %6 = alloca ptr, align 8
  %7 = alloca ptr, align 8
  %8 = alloca ptr, align 8
  %9 = alloca float, align 4
  %10 = alloca [256 x i8], align 16
  %11 = alloca ptr, align 8
  %12 = alloca %struct.FLAC__StreamMetadata_VorbisComment_Entry, align 8
  %13 = alloca i32, align 4
  store ptr %0, ptr %6, align 8, !tbaa !44
  store ptr %1, ptr %7, align 8, !tbaa !28
  store ptr %2, ptr %8, align 8, !tbaa !28
  store float %3, ptr %9, align 4, !tbaa !15
  call void @llvm.lifetime.start.p0(i64 256, ptr %10) #8
  call void @llvm.lifetime.start.p0(i64 8, ptr %11) #8
  call void @llvm.lifetime.start.p0(i64 16, ptr %12) #8
  %14 = getelementptr inbounds nuw [256 x i8], ptr %10, i64 0, i64 255
  store i8 0, ptr %14, align 1, !tbaa !48
  %15 = call ptr @setlocale(i32 noundef 6, ptr noundef null) #8
  %16 = call noalias ptr @strdup(ptr noundef %15) #8
  store ptr %16, ptr %11, align 8, !tbaa !28
  %17 = load ptr, ptr %11, align 8, !tbaa !28
  %18 = icmp eq ptr null, %17
  br i1 %18, label %19, label %20

19:                                               ; preds = %4
  store i32 0, ptr %5, align 4
  store i32 1, ptr %13, align 4
  br label %43

20:                                               ; preds = %4
  %21 = call ptr @setlocale(i32 noundef 6, ptr noundef @.str.8) #8
  %22 = getelementptr inbounds [256 x i8], ptr %10, i64 0, i64 0
  %23 = load ptr, ptr %7, align 8, !tbaa !28
  %24 = load ptr, ptr %8, align 8, !tbaa !28
  %25 = load float, ptr %9, align 4, !tbaa !15
  %26 = fpext float %25 to double
  %27 = call i32 (ptr, i64, ptr, ...) @flac_snprintf(ptr noundef %22, i64 noundef 256, ptr noundef %23, ptr noundef %24, double noundef %26)
  %28 = load ptr, ptr %11, align 8, !tbaa !28
  %29 = call ptr @setlocale(i32 noundef 6, ptr noundef %28) #8
  %30 = load ptr, ptr %11, align 8, !tbaa !28
  call void @free(ptr noundef %30) #8
  %31 = getelementptr inbounds [256 x i8], ptr %10, i64 0, i64 0
  %32 = getelementptr inbounds nuw %struct.FLAC__StreamMetadata_VorbisComment_Entry, ptr %12, i32 0, i32 1
  store ptr %31, ptr %32, align 8, !tbaa !49
  %33 = getelementptr inbounds [256 x i8], ptr %10, i64 0, i64 0
  %34 = call i64 @strlen(ptr noundef %33) #9
  %35 = trunc i64 %34 to i32
  %36 = getelementptr inbounds nuw %struct.FLAC__StreamMetadata_VorbisComment_Entry, ptr %12, i32 0, i32 0
  store i32 %35, ptr %36, align 8, !tbaa !51
  %37 = load ptr, ptr %6, align 8, !tbaa !44
  %38 = getelementptr inbounds nuw { i32, ptr }, ptr %12, i32 0, i32 0
  %39 = load i32, ptr %38, align 8
  %40 = getelementptr inbounds nuw { i32, ptr }, ptr %12, i32 0, i32 1
  %41 = load ptr, ptr %40, align 8
  %42 = call i32 @FLAC__metadata_object_vorbiscomment_append_comment(ptr noundef %37, i32 %39, ptr %41, i32 noundef 1)
  store i32 %42, ptr %5, align 4
  store i32 1, ptr %13, align 4
  br label %43

43:                                               ; preds = %20, %19
  call void @llvm.lifetime.end.p0(i64 16, ptr %12) #8
  call void @llvm.lifetime.end.p0(i64 8, ptr %11) #8
  call void @llvm.lifetime.end.p0(i64 256, ptr %10) #8
  %44 = load i32, ptr %5, align 4
  ret i32 %44
}