; Function Attrs: nounwind sspstrong uwtable
define internal fastcc i32 @append_tag_(ptr noundef %0, ptr noundef %1, ptr noundef %2, float noundef %3) unnamed_addr #0 {
  %5 = alloca [256 x i8], align 16
  call void @llvm.lifetime.start.p0(i64 256, ptr nonnull %5) #14
  %6 = getelementptr inbounds nuw i8, ptr %5, i64 255
  store i8 0, ptr %6, align 1, !tbaa !39
  %7 = tail call ptr @setlocale(i32 noundef 6, ptr noundef null) #14
  %8 = tail call noalias ptr @strdup(ptr noundef %7) #14
  %9 = icmp eq ptr %8, null
  br i1 %9, label %18, label %10

10:                                               ; preds = %4
  %11 = tail call ptr @setlocale(i32 noundef 6, ptr noundef nonnull @.str.8) #14
  %12 = fpext float %3 to double
  %13 = call i32 (ptr, i64, ptr, ...) @flac_snprintf(ptr noundef nonnull %5, i64 noundef 256, ptr noundef %1, ptr noundef %2, double noundef %12) #14
  %14 = call ptr @setlocale(i32 noundef 6, ptr noundef nonnull %8) #14
  call void @free(ptr noundef nonnull %8) #14
  %15 = call i64 @strlen(ptr noundef nonnull dereferenceable(1) %5) #15
  %16 = trunc i64 %15 to i32
  %17 = call i32 @FLAC__metadata_object_vorbiscomment_append_comment(ptr noundef %0, i32 %16, ptr nonnull %5, i32 noundef 1) #14
  br label %18

18:                                               ; preds = %4, %10
  %.0 = phi i32 [ %17, %10 ], [ 0, %4 ]
  call void @llvm.lifetime.end.p0(i64 256, ptr nonnull %5) #14
  ret i32 %.0
}